; Function Attrs: mustprogress uwtable
define noundef nonnull ptr @_ZN7xgboost13GraphvizParam11__MANAGER__Ev() local_unnamed_addr #5 align 2 personality ptr @__gxx_personality_v0 {
  %1 = alloca %"class.std::__cxx11::basic_string", align 8
  %2 = alloca %"class.std::allocator", align 1
  %3 = load atomic i8, ptr @_ZGVZN7xgboost13GraphvizParam11__MANAGER__EvE4inst acquire, align 8
  %4 = icmp eq i8 %3, 0
  br i1 %4, label %5, label %19, !prof !15

5:                                                ; preds = %0
  %6 = tail call i32 @__cxa_guard_acquire(ptr nonnull @_ZGVZN7xgboost13GraphvizParam11__MANAGER__EvE4inst) #17
  %.not = icmp eq i32 %6, 0
  br i1 %.not, label %19, label %7

7:                                                ; preds = %5
  call void @llvm.lifetime.start.p0(i64 32, ptr nonnull %1) #17
  call void @llvm.lifetime.start.p0(i64 1, ptr nonnull %2) #17
  invoke void @_ZNSt7__cxx1112basic_stringIcSt11char_traitsIcESaIcEEC2IS3_EEPKcRKS3_(ptr noundef nonnull align 8 dereferenceable(32) %1, ptr noundef nonnull @.str.40, ptr noundef nonnull align 1 dereferenceable(1) %2)
          to label %8 unwind label %20

8:                                                ; preds = %7
  invoke void @_ZN4dmlc9parameter21ParamManagerSingletonIN7xgboost13GraphvizParamEEC2ERKNSt7__cxx1112basic_stringIcSt11char_traitsIcESaIcEEE(ptr noundef nonnull align 8 dereferenceable(104) @_ZZN7xgboost13GraphvizParam11__MANAGER__EvE4inst, ptr noundef nonnull align 8 dereferenceable(32) %1)
          to label %9 unwind label %22

9:                                                ; preds = %8
  %10 = load ptr, ptr %1, align 8, !tbaa !14
  %11 = getelementptr inbounds nuw i8, ptr %1, i64 16
  %12 = icmp eq ptr %10, %11
  br i1 %12, label %_ZNKSt7__cxx1112basic_stringIcSt11char_traitsIcESaIcEE11_M_is_localEv.exit.thread.i.i, label %_ZNKSt7__cxx1112basic_stringIcSt11char_traitsIcESaIcEE11_M_is_localEv.exit.i.i

_ZNKSt7__cxx1112basic_stringIcSt11char_traitsIcESaIcEE11_M_is_localEv.exit.thread.i.i: ; preds = %9
  %13 = getelementptr inbounds nuw i8, ptr %1, i64 8
  %14 = load i64, ptr %13, align 8, !tbaa !9
  %15 = icmp ult i64 %14, 16
  call void @llvm.assume(i1 %15)
  br label %_ZNSt7__cxx1112basic_stringIcSt11char_traitsIcESaIcEED2Ev.exit

_ZNKSt7__cxx1112basic_stringIcSt11char_traitsIcESaIcEE11_M_is_localEv.exit.i.i: ; preds = %9
  %16 = load i64, ptr %11, align 8, !tbaa !12
  %17 = add i64 %16, 1
  call void @_ZdlPvm(ptr noundef %10, i64 noundef %17) #38
  br label %_ZNSt7__cxx1112basic_stringIcSt11char_traitsIcESaIcEED2Ev.exit

_ZNSt7__cxx1112basic_stringIcSt11char_traitsIcESaIcEED2Ev.exit: ; preds = %_ZNKSt7__cxx1112basic_stringIcSt11char_traitsIcESaIcEE11_M_is_localEv.exit.thread.i.i, %_ZNKSt7__cxx1112basic_stringIcSt11char_traitsIcESaIcEE11_M_is_localEv.exit.i.i
  call void @llvm.lifetime.end.p0(i64 1, ptr nonnull %2) #17
  call void @llvm.lifetime.end.p0(i64 32, ptr nonnull %1) #17
  %18 = call i32 @__cxa_atexit(ptr nonnull @_ZN4dmlc9parameter21ParamManagerSingletonIN7xgboost13GraphvizParamEED2Ev, ptr nonnull @_ZZN7xgboost13GraphvizParam11__MANAGER__EvE4inst, ptr nonnull @__dso_handle) #17
  call void @__cxa_guard_release(ptr nonnull @_ZGVZN7xgboost13GraphvizParam11__MANAGER__EvE4inst) #17
  br label %19

19:                                               ; preds = %_ZNSt7__cxx1112basic_stringIcSt11char_traitsIcESaIcEED2Ev.exit, %5, %0
  ret ptr @_ZZN7xgboost13GraphvizParam11__MANAGER__EvE4inst

20:                                               ; preds = %7
  %21 = landingpad { ptr, i32 }
          cleanup
  br label %_ZNSt7__cxx1112basic_stringIcSt11char_traitsIcESaIcEED2Ev.exit5

22:                                               ; preds = %8
  %23 = landingpad { ptr, i32 }
          cleanup
  %24 = load ptr, ptr %1, align 8, !tbaa !14
  %25 = getelementptr inbounds nuw i8, ptr %1, i64 16
  %26 = icmp eq ptr %24, %25
  br i1 %26, label %_ZNKSt7__cxx1112basic_stringIcSt11char_traitsIcESaIcEE11_M_is_localEv.exit.thread.i.i4, label %_ZNKSt7__cxx1112basic_stringIcSt11char_traitsIcESaIcEE11_M_is_localEv.exit.i.i3

_ZNKSt7__cxx1112basic_stringIcSt11char_traitsIcESaIcEE11_M_is_localEv.exit.thread.i.i4: ; preds = %22
  %27 = getelementptr inbounds nuw i8, ptr %1, i64 8
  %28 = load i64, ptr %27, align 8, !tbaa !9
  %29 = icmp ult i64 %28, 16
  call void @llvm.assume(i1 %29)
  br label %_ZNSt7__cxx1112basic_stringIcSt11char_traitsIcESaIcEED2Ev.exit5

_ZNKSt7__cxx1112basic_stringIcSt11char_traitsIcESaIcEE11_M_is_localEv.exit.i.i3: ; preds = %22
  %30 = load i64, ptr %25, align 8, !tbaa !12
  %31 = add i64 %30, 1
  call void @_ZdlPvm(ptr noundef %24, i64 noundef %31) #38
  br label %_ZNSt7__cxx1112basic_stringIcSt11char_traitsIcESaIcEED2Ev.exit5

_ZNSt7__cxx1112basic_stringIcSt11char_traitsIcESaIcEED2Ev.exit5: ; preds = %_ZNKSt7__cxx1112basic_stringIcSt11char_traitsIcESaIcEE11_M_is_localEv.exit.i.i3, %_ZNKSt7__cxx1112basic_stringIcSt11char_traitsIcESaIcEE11_M_is_localEv.exit.thread.i.i4, %20
  %.pn = phi { ptr, i32 } [ %21, %20 ], [ %23, %_ZNKSt7__cxx1112basic_stringIcSt11char_traitsIcESaIcEE11_M_is_localEv.exit.thread.i.i4 ], [ %23, %_ZNKSt7__cxx1112basic_stringIcSt11char_traitsIcESaIcEE11_M_is_localEv.exit.i.i3 ]
  call void @llvm.lifetime.end.p0(i64 1, ptr nonnull %2) #17
  call void @llvm.lifetime.end.p0(i64 32, ptr nonnull %1) #17
  call void @__cxa_guard_abort(ptr nonnull @_ZGVZN7xgboost13GraphvizParam11__MANAGER__EvE4inst) #17
  resume { ptr, i32 } %.pn
}